target datalayout = "e-m:e-p270:32:32-p271:32:32-p272:64:64-i64:64-i128:128-f80:128-n8:16:32:64-S128"
target triple = "x86_64-pc-linux-gnu"

%struct.ref_dir = type { i32, i32, i32, ptr, ptr }
%struct.ref_entry = type { i8, %union.anon, [0 x i8] }
%union.anon = type { %struct.ref_value }
%struct.ref_value = type { %struct.object_id, ptr }
%struct.object_id = type { [32 x i8], i32 }
%struct.ref_cache = type { ptr, ptr, ptr }

@.str = private unnamed_addr constant [17 x i8] c"refs/ref-cache.c\00", align 1
@.str.1 = private unnamed_addr constant [51 x i8] c"incomplete ref_store without fill_ref_dir function\00", align 1

; Function Attrs: nounwind uwtable
define dso_local ptr @get_ref_dir(ptr noundef %0) #0 {
  %2 = alloca ptr, align 8
  %3 = alloca ptr, align 8
  store ptr %0, ptr %2, align 8, !tbaa !9
  call void @llvm.lifetime.start.p0(i64 8, ptr %3) #10
  %4 = load ptr, ptr %2, align 8, !tbaa !9
  %5 = getelementptr inbounds nuw %struct.ref_entry, ptr %4, i32 0, i32 1
  store ptr %5, ptr %3, align 8, !tbaa !4
  %6 = load ptr, ptr %2, align 8, !tbaa !9
  %7 = getelementptr inbounds nuw %struct.ref_entry, ptr %6, i32 0, i32 0
  %8 = load i8, ptr %7, align 8, !tbaa !21
  %9 = zext i8 %8 to i32
  %10 = and i32 %9, 32
  %11 = icmp ne i32 %10, 0
  br i1 %11, label %12, label %41

12:                                               ; preds = %1
  %13 = load ptr, ptr %3, align 8, !tbaa !4
  %14 = getelementptr inbounds nuw %struct.ref_dir, ptr %13, i32 0, i32 3
  %15 = load ptr, ptr %14, align 8, !tbaa !22
  %16 = getelementptr inbounds nuw %struct.ref_cache, ptr %15, i32 0, i32 2
  %17 = load ptr, ptr %16, align 8, !tbaa !23
  %18 = icmp ne ptr %17, null
  br i1 %18, label %20, label %19

19:                                               ; preds = %12
  call void (ptr, i32, ptr, ...) @BUG_fl(ptr noundef @.str, i32 noundef 28, ptr noundef @.str.1) #9
  unreachable

20:                                               ; preds = %12
  %21 = load ptr, ptr %3, align 8, !tbaa !4
  %22 = getelementptr inbounds nuw %struct.ref_dir, ptr %21, i32 0, i32 3
  %23 = load ptr, ptr %22, align 8, !tbaa !22
  %24 = getelementptr inbounds nuw %struct.ref_cache, ptr %23, i32 0, i32 2
  %25 = load ptr, ptr %24, align 8, !tbaa !23
  %26 = load ptr, ptr %3, align 8, !tbaa !4
  %27 = getelementptr inbounds nuw %struct.ref_dir, ptr %26, i32 0, i32 3
  %28 = load ptr, ptr %27, align 8, !tbaa !22
  %29 = getelementptr inbounds nuw %struct.ref_cache, ptr %28, i32 0, i32 1
  %30 = load ptr, ptr %29, align 8, !tbaa !26
  %31 = load ptr, ptr %3, align 8, !tbaa !4
  %32 = load ptr, ptr %2, align 8, !tbaa !9
  %33 = getelementptr inbounds nuw %struct.ref_entry, ptr %32, i32 0, i32 2
  %34 = getelementptr inbounds [0 x i8], ptr %33, i64 0, i64 0
  call void %25(ptr noundef %30, ptr noundef %31, ptr noundef %34)
  %35 = load ptr, ptr %2, align 8, !tbaa !9
  %36 = getelementptr inbounds nuw %struct.ref_entry, ptr %35, i32 0, i32 0
  %37 = load i8, ptr %36, align 8, !tbaa !21
  %38 = zext i8 %37 to i32
  %39 = and i32 %38, -33
  %40 = trunc i32 %39 to i8
  store i8 %40, ptr %36, align 8, !tbaa !21
  br label %41

41:                                               ; preds = %20, %1
  %42 = load ptr, ptr %3, align 8, !tbaa !4
  call void @llvm.lifetime.end.p0(i64 8, ptr %3) #10
  ret ptr %42
}