; Function Attrs: nounwind uwtable
define dso_local ptr @get_ref_dir(ptr noundef %0) local_unnamed_addr #0 {
  %2 = getelementptr inbounds nuw i8, ptr %0, i64 8
  %3 = load i8, ptr %0, align 8, !tbaa !17
  %4 = and i8 %3, 32
  %.not = icmp eq i8 %4, 0
  br i1 %.not, label %17, label %5

5:                                                ; preds = %1
  %6 = getelementptr inbounds nuw i8, ptr %0, i64 24
  %7 = load ptr, ptr %6, align 8, !tbaa !18
  %8 = getelementptr inbounds nuw i8, ptr %7, i64 16
  %9 = load ptr, ptr %8, align 8, !tbaa !19
  %.not9 = icmp eq ptr %9, null
  br i1 %.not9, label %10, label %11

10:                                               ; preds = %5
  tail call void (ptr, i32, ptr, ...) @BUG_fl(ptr noundef nonnull @.str, i32 noundef 28, ptr noundef nonnull @.str.1) #10
  unreachable

11:                                               ; preds = %5
  %12 = getelementptr inbounds nuw i8, ptr %7, i64 8
  %13 = load ptr, ptr %12, align 8, !tbaa !22
  %14 = getelementptr inbounds nuw i8, ptr %0, i64 56
  tail call void %9(ptr noundef %13, ptr noundef nonnull %2, ptr noundef nonnull %14) #11
  %15 = load i8, ptr %0, align 8, !tbaa !17
  %16 = and i8 %15, -33
  store i8 %16, ptr %0, align 8, !tbaa !17
  br label %17

17:                                               ; preds = %11, %1
  ret ptr %2
}